(lp0
(i__main__
Grasp
p1
(dp2
S'obj_file'
p3
S'../grasp_db/obj_files/Co_clean.obj'
p4
sS'image'
p5
S'../grasp_db/images/3dnet_bottles\\bottle1.png'
p6
sS'scale'
p7
I1
sS'mass'
p8
I1
sS'label'
p9
I0
sba(i__main__
Grasp
p10
(dp11
g3
g4
sg5
S'../grasp_db/images/3dnet_bottles\\bottle10.png'
p12
sg7
I1
sg8
I1
sg9
I0
sba(i__main__
Grasp
p13
(dp14
g3
g4
sg5
S'../grasp_db/images/3dnet_bottles\\bottle11.png'
p15
sg7
I1
sg8
I1
sg9
I0
sba(i__main__
Grasp
p16
(dp17
g3
g4
sg5
S'../grasp_db/images/3dnet_bottles\\bottle12.png'
p18
sg7
I1
sg8
I1
sg9
I0
sba(i__main__
Grasp
p19
(dp20
g3
g4
sg5
S'../grasp_db/images/3dnet_bottles\\bottle13.png'
p21
sg7
I1
sg8
I1
sg9
I0
sba(i__main__
Grasp
p22
(dp23
g3
g4
sg5
S'../grasp_db/images/3dnet_bottles\\bottle14.png'
p24
sg7
I1
sg8
I1
sg9
I0
sba(i__main__
Grasp
p25
(dp26
g3
g4
sg5
S'../grasp_db/images/3dnet_bottles\\bottle15.png'
p27
sg7
I1
sg8
I1
sg9
I0
sba(i__main__
Grasp
p28
(dp29
g3
g4
sg5
S'../grasp_db/images/3dnet_bottles\\bottle16.png'
p30
sg7
I1
sg8
I1
sg9
I0
sba(i__main__
Grasp
p31
(dp32
g3
g4
sg5
S'../grasp_db/images/3dnet_bottles\\bottle17.png'
p33
sg7
I1
sg8
I1
sg9
I0
sba(i__main__
Grasp
p34
(dp35
g3
g4
sg5
S'../grasp_db/images/3dnet_bottles\\bottle18.png'
p36
sg7
I1
sg8
I1
sg9
I0
sba(i__main__
Grasp
p37
(dp38
g3
g4
sg5
S'../grasp_db/images/3dnet_bottles\\bottle19.png'
p39
sg7
I1
sg8
I1
sg9
I0
sba(i__main__
Grasp
p40
(dp41
g3
g4
sg5
S'../grasp_db/images/3dnet_bottles\\bottle2.png'
p42
sg7
I1
sg8
I1
sg9
I0
sba(i__main__
Grasp
p43
(dp44
g3
g4
sg5
S'../grasp_db/images/3dnet_bottles\\bottle20.png'
p45
sg7
I1
sg8
I1
sg9
I0
sba(i__main__
Grasp
p46
(dp47
g3
g4
sg5
S'../grasp_db/images/3dnet_bottles\\bottle3.png'
p48
sg7
I1
sg8
I1
sg9
I0
sba(i__main__
Grasp
p49
(dp50
g3
g4
sg5
S'../grasp_db/images/3dnet_bottles\\bottle4.png'
p51
sg7
I1
sg8
I1
sg9
I0
sba(i__main__
Grasp
p52
(dp53
g3
g4
sg5
S'../grasp_db/images/3dnet_bottles\\bottle5.png'
p54
sg7
I1
sg8
I1
sg9
I0
sba(i__main__
Grasp
p55
(dp56
g3
g4
sg5
S'../grasp_db/images/3dnet_bottles\\bottle6.png'
p57
sg7
I1
sg8
I1
sg9
I0
sba(i__main__
Grasp
p58
(dp59
g3
g4
sg5
S'../grasp_db/images/3dnet_bottles\\bottle7.png'
p60
sg7
I1
sg8
I1
sg9
I0
sba(i__main__
Grasp
p61
(dp62
g3
g4
sg5
S'../grasp_db/images/3dnet_bottles\\bottle8.png'
p63
sg7
I1
sg8
I1
sg9
I0
sba(i__main__
Grasp
p64
(dp65
g3
g4
sg5
S'../grasp_db/images/3dnet_bottles\\bottle9.png'
p66
sg7
I1
sg8
I1
sg9
I0
sba(i__main__
Grasp
p67
(dp68
g3
g4
sg5
S'../grasp_db/images/3dnet_bottles\\bottle_shelf_overlay.png'
p69
sg7
I1
sg8
I1
sg9
I0
sba(i__main__
Grasp
p70
(dp71
g3
g4
sg5
S'../grasp_db/images/apc\\black_warrior.png'
p72
sg7
I1
sg8
I1
sg9
I0
sba(i__main__
Grasp
p73
(dp74
g3
g4
sg5
S'../grasp_db/images/apc\\black_warrior_2.png'
p75
sg7
I1
sg8
I1
sg9
I0
sba(i__main__
Grasp
p76
(dp77
g3
g4
sg5
S'../grasp_db/images/apc\\black_warrior_3.png'
p78
sg7
I1
sg8
I1
sg9
I0
sba(i__main__
Grasp
p79
(dp80
g3
g4
sg5
S'../grasp_db/images/apc\\bottle_brush_1.png'
p81
sg7
I1
sg8
I1
sg9
I0
sba(i__main__
Grasp
p82
(dp83
g3
g4
sg5
S'../grasp_db/images/apc\\bottle_brush_2.png'
p84
sg7
I1
sg8
I1
sg9
I0
sba(i__main__
Grasp
p85
(dp86
g3
g4
sg5
S'../grasp_db/images/apc\\crayons_1.png'
p87
sg7
I1
sg8
I1
sg9
I0
sba(i__main__
Grasp
p88
(dp89
g3
g4
sg5
S'../grasp_db/images/apc\\crayons_2.png'
p90
sg7
I1
sg8
I1
sg9
I0
sba(i__main__
Grasp
p91
(dp92
g3
g4
sg5
S'../grasp_db/images/apc\\crayons_3.png'
p93
sg7
I1
sg8
I1
sg9
I0
sba(i__main__
Grasp
p94
(dp95
g3
g4
sg5
S'../grasp_db/images/apc\\dove_beauty_bar_1.png'
p96
sg7
I1
sg8
I1
sg9
I0
sba(i__main__
Grasp
p97
(dp98
g3
g4
sg5
S'../grasp_db/images/apc\\dove_beauty_bar_2.png'
p99
sg7
I1
sg8
I1
sg9
I0
sba(i__main__
Grasp
p100
(dp101
g3
g4
sg5
S'../grasp_db/images/apc\\dove_beauty_bar_3.png'
p102
sg7
I1
sg8
I1
sg9
I0
sba(i__main__
Grasp
p103
(dp104
g3
g4
sg5
S'../grasp_db/images/apc\\dry_eraser_1.png'
p105
sg7
I1
sg8
I1
sg9
I0
sba(i__main__
Grasp
p106
(dp107
g3
g4
sg5
S'../grasp_db/images/apc\\dry_eraser_2.png'
p108
sg7
I1
sg8
I1
sg9
I0
sba(i__main__
Grasp
p109
(dp110
g3
g4
sg5
S'../grasp_db/images/apc\\duck_dog_toy_1.png'
p111
sg7
I1
sg8
I1
sg9
I0
sba(i__main__
Grasp
p112
(dp113
g3
g4
sg5
S'../grasp_db/images/apc\\duck_toy_1.png'
p114
sg7
I1
sg8
I1
sg9
I0
sba(i__main__
Grasp
p115
(dp116
g3
g4
sg5
S'../grasp_db/images/apc\\duck_toy_2.png'
p117
sg7
I1
sg8
I1
sg9
I0
sba(i__main__
Grasp
p118
(dp119
g3
g4
sg5
S'../grasp_db/images/apc\\duck_toy_3.png'
p120
sg7
I1
sg8
I1
sg9
I0
sba(i__main__
Grasp
p121
(dp122
g3
g4
sg5
S'../grasp_db/images/apc\\elmers_1.png'
p123
sg7
I1
sg8
I1
sg9
I0
sba(i__main__
Grasp
p124
(dp125
g3
g4
sg5
S'../grasp_db/images/apc\\elmers_2.png'
p126
sg7
I1
sg8
I1
sg9
I0
sba(i__main__
Grasp
p127
(dp128
g3
g4
sg5
S'../grasp_db/images/apc\\greenies_1.png'
p129
sg7
I1
sg8
I1
sg9
I0
sba(i__main__
Grasp
p130
(dp131
g3
g4
sg5
S'../grasp_db/images/apc\\greenies_2.png'
p132
sg7
I1
sg8
I1
sg9
I0
sba(i__main__
Grasp
p133
(dp134
g3
g4
sg5
S'../grasp_db/images/apc\\huck_finn_1.png'
p135
sg7
I1
sg8
I1
sg9
I0
sba(i__main__
Grasp
p136
(dp137
g3
g4
sg5
S'../grasp_db/images/apc\\huck_finn_2.png'
p138
sg7
I1
sg8
I1
sg9
I0
sba(i__main__
Grasp
p139
(dp140
g3
g4
sg5
S'../grasp_db/images/apc\\index_cards_1.png'
p141
sg7
I1
sg8
I1
sg9
I0
sba(i__main__
Grasp
p142
(dp143
g3
g4
sg5
S'../grasp_db/images/apc\\index_cards_2.png'
p144
sg7
I1
sg8
I1
sg9
I0
sba(i__main__
Grasp
p145
(dp146
g3
g4
sg5
S'../grasp_db/images/apc\\index_cards_3.png'
p147
sg7
I1
sg8
I1
sg9
I0
sba(i__main__
Grasp
p148
(dp149
g3
g4
sg5
S'../grasp_db/images/apc\\index_cards_4.png'
p150
sg7
I1
sg8
I1
sg9
I0
sba(i__main__
Grasp
p151
(dp152
g3
g4
sg5
S'../grasp_db/images/apc\\mommys_outlet_1.png'
p153
sg7
I1
sg8
I1
sg9
I0
sba(i__main__
Grasp
p154
(dp155
g3
g4
sg5
S'../grasp_db/images/apc\\mommys_outlet_2.png'
p156
sg7
I1
sg8
I1
sg9
I0
sba(i__main__
Grasp
p157
(dp158
g3
g4
sg5
S'../grasp_db/images/apc\\one_with_nature_soap.png'
p159
sg7
I1
sg8
I1
sg9
I0
sba(i__main__
Grasp
p160
(dp161
g3
g4
sg5
S'../grasp_db/images/apc\\oreos)1.png'
p162
sg7
I1
sg8
I1
sg9
I0
sba(i__main__
Grasp
p163
(dp164
g3
g4
sg5
S'../grasp_db/images/apc\\oreos_2.png'
p165
sg7
I1
sg8
I1
sg9
I0
sba(i__main__
Grasp
p166
(dp167
g3
g4
sg5
S'../grasp_db/images/apc\\sharpie_1.png'
p168
sg7
I1
sg8
I1
sg9
I0
sba(i__main__
Grasp
p169
(dp170
g3
g4
sg5
S'../grasp_db/images/apc\\sharpie_2.png'
p171
sg7
I1
sg8
I1
sg9
I0
sba(i__main__
Grasp
p172
(dp173
g3
g4
sg5
S'../grasp_db/images/apc\\sharpie_3.png'
p174
sg7
I1
sg8
I1
sg9
I0
sba(i__main__
Grasp
p175
(dp176
g3
g4
sg5
S'../grasp_db/images/apc\\soap_2.png'
p177
sg7
I1
sg8
I1
sg9
I0
sba(i__main__
Grasp
p178
(dp179
g3
g4
sg5
S'../grasp_db/images/apc\\spark_plug_1.png'
p180
sg7
I1
sg8
I1
sg9
I0
sba(i__main__
Grasp
p181
(dp182
g3
g4
sg5
S'../grasp_db/images/apc\\spark_plug_2.png'
p183
sg7
I1
sg8
I1
sg9
I0
sba(i__main__
Grasp
p184
(dp185
g3
g4
sg5
S'../grasp_db/images/apc\\spark_plug_3.png'
p186
sg7
I1
sg8
I1
sg9
I0
sba(i__main__
Grasp
p187
(dp188
g3
g4
sg5
S'../grasp_db/images/apc\\spark_plug_4.png'
p189
sg7
I1
sg8
I1
sg9
I0
sba(i__main__
Grasp
p190
(dp191
g3
g4
sg5
S'../grasp_db/images/apc\\stick_notes_1.png'
p192
sg7
I1
sg8
I1
sg9
I0
sba(i__main__
Grasp
p193
(dp194
g3
g4
sg5
S'../grasp_db/images/apc\\stick_notes_2.png'
p195
sg7
I1
sg8
I1
sg9
I0
sba(i__main__
Grasp
p196
(dp197
g3
g4
sg5
S'../grasp_db/images/apc\\stick_notes_3.png'
p198
sg7
I1
sg8
I1
sg9
I0
sba(i__main__
Grasp
p199
(dp200
g3
g4
sg5
S'../grasp_db/images/apc\\stick_notes_4.png'
p201
sg7
I1
sg8
I1
sg9
I0
sba(i__main__
Grasp
p202
(dp203
g3
g4
sg5
S'../grasp_db/images/ycb\\apple_1.png'
p204
sg7
I1
sg8
I1
sg9
I0
sba(i__main__
Grasp
p205
(dp206
g3
g4
sg5
S'../grasp_db/images/ycb\\apple_2.png'
p207
sg7
I1
sg8
I1
sg9
I0
sba(i__main__
Grasp
p208
(dp209
g3
g4
sg5
S'../grasp_db/images/ycb\\banana_1.png'
p210
sg7
I1
sg8
I1
sg9
I0
sba(i__main__
Grasp
p211
(dp212
g3
g4
sg5
S'../grasp_db/images/ycb\\banana_2.png'
p213
sg7
I1
sg8
I1
sg9
I0
sba(i__main__
Grasp
p214
(dp215
g3
g4
sg5
S'../grasp_db/images/ycb\\banana_3.png'
p216
sg7
I1
sg8
I1
sg9
I0
sba(i__main__
Grasp
p217
(dp218
g3
g4
sg5
S'../grasp_db/images/ycb\\chain_1.png'
p219
sg7
I1
sg8
I1
sg9
I0
sba(i__main__
Grasp
p220
(dp221
g3
g4
sg5
S'../grasp_db/images/ycb\\cheerios_1.png'
p222
sg7
I1
sg8
I1
sg9
I0
sba(i__main__
Grasp
p223
(dp224
g3
g4
sg5
S'../grasp_db/images/ycb\\cheerios_2.png'
p225
sg7
I1
sg8
I1
sg9
I0
sba(i__main__
Grasp
p226
(dp227
g3
g4
sg5
S'../grasp_db/images/ycb\\cheez_it_1.png'
p228
sg7
I1
sg8
I1
sg9
I0
sba(i__main__
Grasp
p229
(dp230
g3
g4
sg5
S'../grasp_db/images/ycb\\clorox_1.png'
p231
sg7
I1
sg8
I1
sg9
I0
sba(i__main__
Grasp
p232
(dp233
g3
g4
sg5
S'../grasp_db/images/ycb\\clorox_2.png'
p234
sg7
I1
sg8
I1
sg9
I0
sba(i__main__
Grasp
p235
(dp236
g3
g4
sg5
S'../grasp_db/images/ycb\\cups_1.png'
p237
sg7
I1
sg8
I1
sg9
I0
sba(i__main__
Grasp
p238
(dp239
g3
g4
sg5
S'../grasp_db/images/ycb\\cups_2.png'
p240
sg7
I1
sg8
I1
sg9
I0
sba(i__main__
Grasp
p241
(dp242
g3
g4
sg5
S'../grasp_db/images/ycb\\domino_1.png'
p243
sg7
I1
sg8
I1
sg9
I0
sba(i__main__
Grasp
p244
(dp245
g3
g4
sg5
S'../grasp_db/images/ycb\\drill_box_1.png'
p246
sg7
I1
sg8
I1
sg9
I0
sba(i__main__
Grasp
p247
(dp248
g3
g4
sg5
S'../grasp_db/images/ycb\\dry_erase_marker.png'
p249
sg7
I1
sg8
I1
sg9
I0
sba(i__main__
Grasp
p250
(dp251
g3
g4
sg5
S'../grasp_db/images/ycb\\foam_block_1.png'
p252
sg7
I1
sg8
I1
sg9
I0
sba(i__main__
Grasp
p253
(dp254
g3
g4
sg5
S'../grasp_db/images/ycb\\golf_ball_1.png'
p255
sg7
I1
sg8
I1
sg9
I0
sba(i__main__
Grasp
p256
(dp257
g3
g4
sg5
S'../grasp_db/images/ycb\\hammer_1.png'
p258
sg7
I1
sg8
I1
sg9
I0
sba(i__main__
Grasp
p259
(dp260
g3
g4
sg5
S'../grasp_db/images/ycb\\hammer_2.png'
p261
sg7
I1
sg8
I1
sg9
I0
sba(i__main__
Grasp
p262
(dp263
g3
g4
sg5
S'../grasp_db/images/ycb\\large_clamp_1.png'
p264
sg7
I1
sg8
I1
sg9
I0
sba(i__main__
Grasp
p265
(dp266
g3
g4
sg5
S'../grasp_db/images/ycb\\mug_1.png'
p267
sg7
I1
sg8
I1
sg9
I0
sba(i__main__
Grasp
p268
(dp269
g3
g4
sg5
S'../grasp_db/images/ycb\\mustard_1.png'
p270
sg7
I1
sg8
I1
sg9
I0
sba(i__main__
Grasp
p271
(dp272
g3
g4
sg5
S'../grasp_db/images/ycb\\mustard_2.png'
p273
sg7
I1
sg8
I1
sg9
I0
sba(i__main__
Grasp
p274
(dp275
g3
g4
sg5
S'../grasp_db/images/ycb\\pear_1.png'
p276
sg7
I1
sg8
I1
sg9
I0
sba(i__main__
Grasp
p277
(dp278
g3
g4
sg5
S'../grasp_db/images/ycb\\play_go_cups_1.png'
p279
sg7
I1
sg8
I1
sg9
I0
sba(i__main__
Grasp
p280
(dp281
g3
g4
sg5
S'../grasp_db/images/ycb\\play_go_orange_1.png'
p282
sg7
I1
sg8
I1
sg9
I0
sba(i__main__
Grasp
p283
(dp284
g3
g4
sg5
S'../grasp_db/images/ycb\\power_drill_1.png'
p285
sg7
I1
sg8
I1
sg9
I0
sba(i__main__
Grasp
p286
(dp287
g3
g4
sg5
S'../grasp_db/images/ycb\\power_drill_2.png'
p288
sg7
I1
sg8
I1
sg9
I0
sba(i__main__
Grasp
p289
(dp290
g3
g4
sg5
S'../grasp_db/images/ycb\\pringles_1.png'
p291
sg7
I1
sg8
I1
sg9
I0
sba(i__main__
Grasp
p292
(dp293
g3
g4
sg5
S'../grasp_db/images/ycb\\rope_1.png'
p294
sg7
I1
sg8
I1
sg9
I0
sba(i__main__
Grasp
p295
(dp296
g3
g4
sg5
S'../grasp_db/images/ycb\\scissors_1.png'
p297
sg7
I1
sg8
I1
sg9
I0
sba(i__main__
Grasp
p298
(dp299
g3
g4
sg5
S'../grasp_db/images/ycb\\scissors_2.png'
p300
sg7
I1
sg8
I1
sg9
I0
sba(i__main__
Grasp
p301
(dp302
g3
g4
sg5
S'../grasp_db/images/ycb\\scissors_3.png'
p303
sg7
I1
sg8
I1
sg9
I0
sba(i__main__
Grasp
p304
(dp305
g3
g4
sg5
S'../grasp_db/images/ycb\\screwdriver_1.png'
p306
sg7
I1
sg8
I1
sg9
I0
sba(i__main__
Grasp
p307
(dp308
g3
g4
sg5
S'../grasp_db/images/ycb\\screwdriver_2.png'
p309
sg7
I1
sg8
I1
sg9
I0
sba(i__main__
Grasp
p310
(dp311
g3
g4
sg5
S'../grasp_db/images/ycb\\screwdriver_3.png'
p312
sg7
I1
sg8
I1
sg9
I0
sba(i__main__
Grasp
p313
(dp314
g3
g4
sg5
S'../grasp_db/images/ycb\\sharpie_1.png'
p315
sg7
I1
sg8
I1
sg9
I0
sba(i__main__
Grasp
p316
(dp317
g3
g4
sg5
S'../grasp_db/images/ycb\\small_clamp_1.png'
p318
sg7
I1
sg8
I1
sg9
I0
sba(i__main__
Grasp
p319
(dp320
g3
g4
sg5
S'../grasp_db/images/ycb\\soft_scrub_1.png'
p321
sg7
I1
sg8
I1
sg9
I0
sba(i__main__
Grasp
p322
(dp323
g3
g4
sg5
S'../grasp_db/images/ycb\\soft_scrub_2.png'
p324
sg7
I1
sg8
I1
sg9
I0
sba(i__main__
Grasp
p325
(dp326
g3
g4
sg5
S'../grasp_db/images/ycb\\soup_1.png'
p327
sg7
I1
sg8
I1
sg9
I0
sba(i__main__
Grasp
p328
(dp329
g3
g4
sg5
S'../grasp_db/images/ycb\\tuna_1.png'
p330
sg7
I1
sg8
I1
sg9
I0
sba(i__main__
Grasp
p331
(dp332
g3
g4
sg5
S'../grasp_db/images/ycb\\tuna_2.png'
p333
sg7
I1
sg8
I1
sg9
I0
sba(i__main__
Grasp
p334
(dp335
g3
g4
sg5
S'../grasp_db/images/ycb\\wood_1.png'
p336
sg7
I1
sg8
I1
sg9
I0
sba(i__main__
Grasp
p337
(dp338
g3
g4
sg5
S'../grasp_db/images/ycb\\wood_12in_1.png'
p339
sg7
I1
sg8
I1
sg9
I0
sba.