(lp0
(i__main__
Grasp
p1
(dp2
S'obj_file'
p3
S'../grasp_db/obj_files/monkey.obj'
p4
sS'image'
p5
S'../grasp_db/images/3dnet_bottles\\bottle1.png'
p6
sS'scale'
p7
I1
sS'label'
p8
I0
sba(i__main__
Grasp
p9
(dp10
g3
g4
sg5
S'../grasp_db/images/3dnet_bottles\\bottle10.png'
p11
sg7
I1
sg8
I0
sba(i__main__
Grasp
p12
(dp13
g3
g4
sg5
S'../grasp_db/images/3dnet_bottles\\bottle11.png'
p14
sg7
I1
sg8
I0
sba(i__main__
Grasp
p15
(dp16
g3
g4
sg5
S'../grasp_db/images/3dnet_bottles\\bottle12.png'
p17
sg7
I1
sg8
I0
sba(i__main__
Grasp
p18
(dp19
g3
g4
sg5
S'../grasp_db/images/3dnet_bottles\\bottle13.png'
p20
sg7
I1
sg8
I0
sba(i__main__
Grasp
p21
(dp22
g3
g4
sg5
S'../grasp_db/images/3dnet_bottles\\bottle14.png'
p23
sg7
I1
sg8
I0
sba(i__main__
Grasp
p24
(dp25
g3
g4
sg5
S'../grasp_db/images/3dnet_bottles\\bottle15.png'
p26
sg7
I1
sg8
I0
sba(i__main__
Grasp
p27
(dp28
g3
g4
sg5
S'../grasp_db/images/3dnet_bottles\\bottle16.png'
p29
sg7
I1
sg8
I0
sba(i__main__
Grasp
p30
(dp31
g3
g4
sg5
S'../grasp_db/images/3dnet_bottles\\bottle17.png'
p32
sg7
I1
sg8
I0
sba(i__main__
Grasp
p33
(dp34
g3
g4
sg5
S'../grasp_db/images/3dnet_bottles\\bottle18.png'
p35
sg7
I1
sg8
I0
sba(i__main__
Grasp
p36
(dp37
g3
g4
sg5
S'../grasp_db/images/3dnet_bottles\\bottle19.png'
p38
sg7
I1
sg8
I0
sba(i__main__
Grasp
p39
(dp40
g3
g4
sg5
S'../grasp_db/images/3dnet_bottles\\bottle2.png'
p41
sg7
I1
sg8
I0
sba(i__main__
Grasp
p42
(dp43
g3
g4
sg5
S'../grasp_db/images/3dnet_bottles\\bottle20.png'
p44
sg7
I1
sg8
I0
sba(i__main__
Grasp
p45
(dp46
g3
g4
sg5
S'../grasp_db/images/3dnet_bottles\\bottle3.png'
p47
sg7
I1
sg8
I0
sba(i__main__
Grasp
p48
(dp49
g3
g4
sg5
S'../grasp_db/images/3dnet_bottles\\bottle4.png'
p50
sg7
I1
sg8
I0
sba(i__main__
Grasp
p51
(dp52
g3
g4
sg5
S'../grasp_db/images/3dnet_bottles\\bottle5.png'
p53
sg7
I1
sg8
I0
sba(i__main__
Grasp
p54
(dp55
g3
g4
sg5
S'../grasp_db/images/3dnet_bottles\\bottle6.png'
p56
sg7
I1
sg8
I0
sba(i__main__
Grasp
p57
(dp58
g3
g4
sg5
S'../grasp_db/images/3dnet_bottles\\bottle7.png'
p59
sg7
I1
sg8
I0
sba(i__main__
Grasp
p60
(dp61
g3
g4
sg5
S'../grasp_db/images/3dnet_bottles\\bottle8.png'
p62
sg7
I1
sg8
I0
sba(i__main__
Grasp
p63
(dp64
g3
g4
sg5
S'../grasp_db/images/3dnet_bottles\\bottle9.png'
p65
sg7
I1
sg8
I0
sba(i__main__
Grasp
p66
(dp67
g3
g4
sg5
S'../grasp_db/images/3dnet_bottles\\bottle_shelf_overlay.png'
p68
sg7
I1
sg8
I0
sba(i__main__
Grasp
p69
(dp70
g3
g4
sg5
S'../grasp_db/images/apc\\black_warrior.png'
p71
sg7
I1
sg8
I0
sba(i__main__
Grasp
p72
(dp73
g3
g4
sg5
S'../grasp_db/images/apc\\black_warrior_2.png'
p74
sg7
I1
sg8
I0
sba(i__main__
Grasp
p75
(dp76
g3
g4
sg5
S'../grasp_db/images/apc\\black_warrior_3.png'
p77
sg7
I1
sg8
I0
sba(i__main__
Grasp
p78
(dp79
g3
g4
sg5
S'../grasp_db/images/apc\\bottle_brush_1.png'
p80
sg7
I1
sg8
I0
sba(i__main__
Grasp
p81
(dp82
g3
g4
sg5
S'../grasp_db/images/apc\\bottle_brush_2.png'
p83
sg7
I1
sg8
I0
sba(i__main__
Grasp
p84
(dp85
g3
g4
sg5
S'../grasp_db/images/apc\\crayons_1.png'
p86
sg7
I1
sg8
I0
sba(i__main__
Grasp
p87
(dp88
g3
g4
sg5
S'../grasp_db/images/apc\\crayons_2.png'
p89
sg7
I1
sg8
I0
sba(i__main__
Grasp
p90
(dp91
g3
g4
sg5
S'../grasp_db/images/apc\\crayons_3.png'
p92
sg7
I1
sg8
I0
sba(i__main__
Grasp
p93
(dp94
g3
g4
sg5
S'../grasp_db/images/apc\\dove_beauty_bar_1.png'
p95
sg7
I1
sg8
I0
sba(i__main__
Grasp
p96
(dp97
g3
g4
sg5
S'../grasp_db/images/apc\\dove_beauty_bar_2.png'
p98
sg7
I1
sg8
I0
sba(i__main__
Grasp
p99
(dp100
g3
g4
sg5
S'../grasp_db/images/apc\\dove_beauty_bar_3.png'
p101
sg7
I1
sg8
I0
sba(i__main__
Grasp
p102
(dp103
g3
g4
sg5
S'../grasp_db/images/apc\\dry_eraser_1.png'
p104
sg7
I1
sg8
I0
sba(i__main__
Grasp
p105
(dp106
g3
g4
sg5
S'../grasp_db/images/apc\\dry_eraser_2.png'
p107
sg7
I1
sg8
I0
sba(i__main__
Grasp
p108
(dp109
g3
g4
sg5
S'../grasp_db/images/apc\\duck_dog_toy_1.png'
p110
sg7
I1
sg8
I0
sba(i__main__
Grasp
p111
(dp112
g3
g4
sg5
S'../grasp_db/images/apc\\duck_toy_1.png'
p113
sg7
I1
sg8
I0
sba(i__main__
Grasp
p114
(dp115
g3
g4
sg5
S'../grasp_db/images/apc\\duck_toy_2.png'
p116
sg7
I1
sg8
I0
sba(i__main__
Grasp
p117
(dp118
g3
g4
sg5
S'../grasp_db/images/apc\\duck_toy_3.png'
p119
sg7
I1
sg8
I0
sba(i__main__
Grasp
p120
(dp121
g3
g4
sg5
S'../grasp_db/images/apc\\elmers_1.png'
p122
sg7
I1
sg8
I0
sba(i__main__
Grasp
p123
(dp124
g3
g4
sg5
S'../grasp_db/images/apc\\elmers_2.png'
p125
sg7
I1
sg8
I0
sba(i__main__
Grasp
p126
(dp127
g3
g4
sg5
S'../grasp_db/images/apc\\greenies_1.png'
p128
sg7
I1
sg8
I0
sba(i__main__
Grasp
p129
(dp130
g3
g4
sg5
S'../grasp_db/images/apc\\greenies_2.png'
p131
sg7
I1
sg8
I0
sba(i__main__
Grasp
p132
(dp133
g3
g4
sg5
S'../grasp_db/images/apc\\huck_finn_1.png'
p134
sg7
I1
sg8
I0
sba(i__main__
Grasp
p135
(dp136
g3
g4
sg5
S'../grasp_db/images/apc\\huck_finn_2.png'
p137
sg7
I1
sg8
I0
sba(i__main__
Grasp
p138
(dp139
g3
g4
sg5
S'../grasp_db/images/apc\\index_cards_1.png'
p140
sg7
I1
sg8
I0
sba(i__main__
Grasp
p141
(dp142
g3
g4
sg5
S'../grasp_db/images/apc\\index_cards_2.png'
p143
sg7
I1
sg8
I0
sba(i__main__
Grasp
p144
(dp145
g3
g4
sg5
S'../grasp_db/images/apc\\index_cards_3.png'
p146
sg7
I1
sg8
I0
sba(i__main__
Grasp
p147
(dp148
g3
g4
sg5
S'../grasp_db/images/apc\\index_cards_4.png'
p149
sg7
I1
sg8
I0
sba(i__main__
Grasp
p150
(dp151
g3
g4
sg5
S'../grasp_db/images/apc\\mommys_outlet_1.png'
p152
sg7
I1
sg8
I0
sba(i__main__
Grasp
p153
(dp154
g3
g4
sg5
S'../grasp_db/images/apc\\mommys_outlet_2.png'
p155
sg7
I1
sg8
I0
sba(i__main__
Grasp
p156
(dp157
g3
g4
sg5
S'../grasp_db/images/apc\\one_with_nature_soap.png'
p158
sg7
I1
sg8
I0
sba(i__main__
Grasp
p159
(dp160
g3
g4
sg5
S'../grasp_db/images/apc\\oreos)1.png'
p161
sg7
I1
sg8
I0
sba(i__main__
Grasp
p162
(dp163
g3
g4
sg5
S'../grasp_db/images/apc\\oreos_2.png'
p164
sg7
I1
sg8
I0
sba(i__main__
Grasp
p165
(dp166
g3
g4
sg5
S'../grasp_db/images/apc\\sharpie_1.png'
p167
sg7
I1
sg8
I0
sba(i__main__
Grasp
p168
(dp169
g3
g4
sg5
S'../grasp_db/images/apc\\sharpie_2.png'
p170
sg7
I1
sg8
I0
sba(i__main__
Grasp
p171
(dp172
g3
g4
sg5
S'../grasp_db/images/apc\\sharpie_3.png'
p173
sg7
I1
sg8
I0
sba(i__main__
Grasp
p174
(dp175
g3
g4
sg5
S'../grasp_db/images/apc\\soap_2.png'
p176
sg7
I1
sg8
I0
sba(i__main__
Grasp
p177
(dp178
g3
g4
sg5
S'../grasp_db/images/apc\\spark_plug_1.png'
p179
sg7
I1
sg8
I0
sba(i__main__
Grasp
p180
(dp181
g3
g4
sg5
S'../grasp_db/images/apc\\spark_plug_2.png'
p182
sg7
I1
sg8
I0
sba(i__main__
Grasp
p183
(dp184
g3
g4
sg5
S'../grasp_db/images/apc\\spark_plug_3.png'
p185
sg7
I1
sg8
I0
sba(i__main__
Grasp
p186
(dp187
g3
g4
sg5
S'../grasp_db/images/apc\\spark_plug_4.png'
p188
sg7
I1
sg8
I0
sba(i__main__
Grasp
p189
(dp190
g3
g4
sg5
S'../grasp_db/images/apc\\stick_notes_1.png'
p191
sg7
I1
sg8
I0
sba(i__main__
Grasp
p192
(dp193
g3
g4
sg5
S'../grasp_db/images/apc\\stick_notes_2.png'
p194
sg7
I1
sg8
I0
sba(i__main__
Grasp
p195
(dp196
g3
g4
sg5
S'../grasp_db/images/apc\\stick_notes_3.png'
p197
sg7
I1
sg8
I0
sba(i__main__
Grasp
p198
(dp199
g3
g4
sg5
S'../grasp_db/images/apc\\stick_notes_4.png'
p200
sg7
I1
sg8
I0
sba(i__main__
Grasp
p201
(dp202
g3
g4
sg5
S'../grasp_db/images/ycb\\apple_1.png'
p203
sg7
I1
sg8
I0
sba(i__main__
Grasp
p204
(dp205
g3
g4
sg5
S'../grasp_db/images/ycb\\apple_2.png'
p206
sg7
I1
sg8
I0
sba(i__main__
Grasp
p207
(dp208
g3
g4
sg5
S'../grasp_db/images/ycb\\banana_1.png'
p209
sg7
I1
sg8
I0
sba(i__main__
Grasp
p210
(dp211
g3
g4
sg5
S'../grasp_db/images/ycb\\banana_2.png'
p212
sg7
I1
sg8
I0
sba(i__main__
Grasp
p213
(dp214
g3
g4
sg5
S'../grasp_db/images/ycb\\banana_3.png'
p215
sg7
I1
sg8
I0
sba(i__main__
Grasp
p216
(dp217
g3
g4
sg5
S'../grasp_db/images/ycb\\chain_1.png'
p218
sg7
I1
sg8
I0
sba(i__main__
Grasp
p219
(dp220
g3
g4
sg5
S'../grasp_db/images/ycb\\cheerios_1.png'
p221
sg7
I1
sg8
I0
sba(i__main__
Grasp
p222
(dp223
g3
g4
sg5
S'../grasp_db/images/ycb\\cheerios_2.png'
p224
sg7
I1
sg8
I0
sba(i__main__
Grasp
p225
(dp226
g3
g4
sg5
S'../grasp_db/images/ycb\\cheez_it_1.png'
p227
sg7
I1
sg8
I0
sba(i__main__
Grasp
p228
(dp229
g3
g4
sg5
S'../grasp_db/images/ycb\\clorox_1.png'
p230
sg7
I1
sg8
I0
sba(i__main__
Grasp
p231
(dp232
g3
g4
sg5
S'../grasp_db/images/ycb\\clorox_2.png'
p233
sg7
I1
sg8
I0
sba(i__main__
Grasp
p234
(dp235
g3
g4
sg5
S'../grasp_db/images/ycb\\cups_1.png'
p236
sg7
I1
sg8
I0
sba(i__main__
Grasp
p237
(dp238
g3
g4
sg5
S'../grasp_db/images/ycb\\cups_2.png'
p239
sg7
I1
sg8
I0
sba(i__main__
Grasp
p240
(dp241
g3
g4
sg5
S'../grasp_db/images/ycb\\domino_1.png'
p242
sg7
I1
sg8
I0
sba(i__main__
Grasp
p243
(dp244
g3
g4
sg5
S'../grasp_db/images/ycb\\drill_box_1.png'
p245
sg7
I1
sg8
I0
sba(i__main__
Grasp
p246
(dp247
g3
g4
sg5
S'../grasp_db/images/ycb\\dry_erase_marker.png'
p248
sg7
I1
sg8
I0
sba(i__main__
Grasp
p249
(dp250
g3
g4
sg5
S'../grasp_db/images/ycb\\foam_block_1.png'
p251
sg7
I1
sg8
I0
sba(i__main__
Grasp
p252
(dp253
g3
g4
sg5
S'../grasp_db/images/ycb\\golf_ball_1.png'
p254
sg7
I1
sg8
I0
sba(i__main__
Grasp
p255
(dp256
g3
g4
sg5
S'../grasp_db/images/ycb\\hammer_1.png'
p257
sg7
I1
sg8
I0
sba(i__main__
Grasp
p258
(dp259
g3
g4
sg5
S'../grasp_db/images/ycb\\hammer_2.png'
p260
sg7
I1
sg8
I0
sba(i__main__
Grasp
p261
(dp262
g3
g4
sg5
S'../grasp_db/images/ycb\\large_clamp_1.png'
p263
sg7
I1
sg8
I0
sba(i__main__
Grasp
p264
(dp265
g3
g4
sg5
S'../grasp_db/images/ycb\\mug_1.png'
p266
sg7
I1
sg8
I0
sba(i__main__
Grasp
p267
(dp268
g3
g4
sg5
S'../grasp_db/images/ycb\\mustard_1.png'
p269
sg7
I1
sg8
I0
sba(i__main__
Grasp
p270
(dp271
g3
g4
sg5
S'../grasp_db/images/ycb\\mustard_2.png'
p272
sg7
I1
sg8
I0
sba(i__main__
Grasp
p273
(dp274
g3
g4
sg5
S'../grasp_db/images/ycb\\pear_1.png'
p275
sg7
I1
sg8
I0
sba(i__main__
Grasp
p276
(dp277
g3
g4
sg5
S'../grasp_db/images/ycb\\play_go_cups_1.png'
p278
sg7
I1
sg8
I0
sba(i__main__
Grasp
p279
(dp280
g3
g4
sg5
S'../grasp_db/images/ycb\\play_go_orange_1.png'
p281
sg7
I1
sg8
I0
sba(i__main__
Grasp
p282
(dp283
g3
g4
sg5
S'../grasp_db/images/ycb\\power_drill_1.png'
p284
sg7
I1
sg8
I0
sba(i__main__
Grasp
p285
(dp286
g3
g4
sg5
S'../grasp_db/images/ycb\\power_drill_2.png'
p287
sg7
I1
sg8
I0
sba(i__main__
Grasp
p288
(dp289
g3
g4
sg5
S'../grasp_db/images/ycb\\pringles_1.png'
p290
sg7
I1
sg8
I0
sba(i__main__
Grasp
p291
(dp292
g3
g4
sg5
S'../grasp_db/images/ycb\\rope_1.png'
p293
sg7
I1
sg8
I0
sba(i__main__
Grasp
p294
(dp295
g3
g4
sg5
S'../grasp_db/images/ycb\\scissors_1.png'
p296
sg7
I1
sg8
I0
sba(i__main__
Grasp
p297
(dp298
g3
g4
sg5
S'../grasp_db/images/ycb\\scissors_2.png'
p299
sg7
I1
sg8
I0
sba(i__main__
Grasp
p300
(dp301
g3
g4
sg5
S'../grasp_db/images/ycb\\scissors_3.png'
p302
sg7
I1
sg8
I0
sba(i__main__
Grasp
p303
(dp304
g3
g4
sg5
S'../grasp_db/images/ycb\\screwdriver_1.png'
p305
sg7
I1
sg8
I0
sba(i__main__
Grasp
p306
(dp307
g3
g4
sg5
S'../grasp_db/images/ycb\\screwdriver_2.png'
p308
sg7
I1
sg8
I0
sba(i__main__
Grasp
p309
(dp310
g3
g4
sg5
S'../grasp_db/images/ycb\\screwdriver_3.png'
p311
sg7
I1
sg8
I0
sba(i__main__
Grasp
p312
(dp313
g3
g4
sg5
S'../grasp_db/images/ycb\\sharpie_1.png'
p314
sg7
I1
sg8
I0
sba(i__main__
Grasp
p315
(dp316
g3
g4
sg5
S'../grasp_db/images/ycb\\small_clamp_1.png'
p317
sg7
I1
sg8
I0
sba(i__main__
Grasp
p318
(dp319
g3
g4
sg5
S'../grasp_db/images/ycb\\soft_scrub_1.png'
p320
sg7
I1
sg8
I0
sba(i__main__
Grasp
p321
(dp322
g3
g4
sg5
S'../grasp_db/images/ycb\\soft_scrub_2.png'
p323
sg7
I1
sg8
I0
sba(i__main__
Grasp
p324
(dp325
g3
g4
sg5
S'../grasp_db/images/ycb\\soup_1.png'
p326
sg7
I1
sg8
I0
sba(i__main__
Grasp
p327
(dp328
g3
g4
sg5
S'../grasp_db/images/ycb\\tuna_1.png'
p329
sg7
I1
sg8
I0
sba(i__main__
Grasp
p330
(dp331
g3
g4
sg5
S'../grasp_db/images/ycb\\tuna_2.png'
p332
sg7
I1
sg8
I0
sba(i__main__
Grasp
p333
(dp334
g3
g4
sg5
S'../grasp_db/images/ycb\\wood_1.png'
p335
sg7
I1
sg8
I0
sba(i__main__
Grasp
p336
(dp337
g3
g4
sg5
S'../grasp_db/images/ycb\\wood_12in_1.png'
p338
sg7
I1
sg8
I0
sba.